target datalayout = "e-m:e-p270:32:32-p271:32:32-p272:64:64-i64:64-i128:128-f80:128-n8:16:32:64-S128"
target triple = "x86_64-pc-linux-gnu"

%struct.H5D_chk_idx_info_t = type { ptr, ptr, ptr, ptr }
%struct.H5O_pline_t = type { %struct.H5O_shared_t, i32, i64, i64, ptr }
%struct.H5O_shared_t = type { i32, ptr, i32, %union.anon }
%union.anon = type { %struct.H5O_mesg_loc_t }
%struct.H5O_mesg_loc_t = type { i32, i64 }
%struct.H5O_layout_chunk_t = type { i32, i8, i32, [33 x i32], i32, i32, i64, i64, [33 x i64], [33 x i64], [33 x i64], [33 x i64], %union.anon.0 }
%union.anon.0 = type { %struct.H5O_layout_chunk_earray_t }
%struct.H5O_layout_chunk_earray_t = type { %struct.anon.1, i32, [33 x i32], [33 x i64], [33 x i64] }
%struct.anon.1 = type { i8, i8, i8, i8, i8 }
%struct.H5O_storage_chunk_t = type { i32, i64, ptr, %union.anon.3 }
%union.anon.3 = type { %struct.H5O_storage_chunk_btree_t }
%struct.H5O_storage_chunk_btree_t = type { i64, ptr }
%struct.H5O_storage_chunk_single_filt_t = type { i32, i32 }

@H5D_init_g = external global i8, align 1
@H5_libterm_g = external global i8, align 1

; Function Attrs: nounwind uwtable
define internal i32 @H5D__single_idx_init(ptr noundef %0, ptr noundef %1, i64 noundef %2) #0 {
  %4 = alloca ptr, align 8
  %5 = alloca ptr, align 8
  %6 = alloca i64, align 8
  store ptr %0, ptr %4, align 8, !tbaa !3
  store ptr %1, ptr %5, align 8, !tbaa !8
  store i64 %2, ptr %6, align 8, !tbaa !10
  %7 = load i8, ptr @H5D_init_g, align 1, !tbaa !12, !range !14, !noundef !15
  %8 = trunc i8 %7 to i1
  br i1 %8, label %13, label %9

9:                                                ; preds = %3
  %10 = load i8, ptr @H5_libterm_g, align 1, !tbaa !12, !range !14, !noundef !15
  %11 = trunc i8 %10 to i1
  %12 = xor i1 %11, true
  br label %13

13:                                               ; preds = %9, %3
  %14 = phi i1 [ true, %3 ], [ %12, %9 ]
  %15 = xor i1 %14, true
  %16 = xor i1 %15, true
  %17 = zext i1 %16 to i32
  %18 = sext i32 %17 to i64
  %19 = call i64 @llvm.expect.i64(i64 %18, i64 1)
  %20 = icmp ne i64 %19, 0
  br i1 %20, label %21, label %61

21:                                               ; preds = %13
  %22 = load ptr, ptr %4, align 8, !tbaa !3
  %23 = getelementptr inbounds nuw %struct.H5D_chk_idx_info_t, ptr %22, i32 0, i32 1
  %24 = load ptr, ptr %23, align 8, !tbaa !16
  %25 = getelementptr inbounds nuw %struct.H5O_pline_t, ptr %24, i32 0, i32 3
  %26 = load i64, ptr %25, align 8, !tbaa !22
  %27 = icmp ne i64 %26, 0
  br i1 %27, label %28, label %55

28:                                               ; preds = %21
  %29 = load ptr, ptr %4, align 8, !tbaa !3
  %30 = getelementptr inbounds nuw %struct.H5D_chk_idx_info_t, ptr %29, i32 0, i32 2
  %31 = load ptr, ptr %30, align 8, !tbaa !27
  %32 = getelementptr inbounds nuw %struct.H5O_layout_chunk_t, ptr %31, i32 0, i32 1
  %33 = load i8, ptr %32, align 4, !tbaa !28
  %34 = zext i8 %33 to i32
  %35 = or i32 %34, 2
  %36 = trunc i32 %35 to i8
  store i8 %36, ptr %32, align 4, !tbaa !28
  %37 = load ptr, ptr %4, align 8, !tbaa !3
  %38 = getelementptr inbounds nuw %struct.H5D_chk_idx_info_t, ptr %37, i32 0, i32 3
  %39 = load ptr, ptr %38, align 8, !tbaa !30
  %40 = getelementptr inbounds nuw %struct.H5O_storage_chunk_t, ptr %39, i32 0, i32 1
  %41 = load i64, ptr %40, align 8, !tbaa !31
  %42 = icmp ne i64 %41, -1
  br i1 %42, label %54, label %43

43:                                               ; preds = %28
  %44 = load ptr, ptr %4, align 8, !tbaa !3
  %45 = getelementptr inbounds nuw %struct.H5D_chk_idx_info_t, ptr %44, i32 0, i32 3
  %46 = load ptr, ptr %45, align 8, !tbaa !30
  %47 = getelementptr inbounds nuw %struct.H5O_storage_chunk_t, ptr %46, i32 0, i32 3
  %48 = getelementptr inbounds nuw %struct.H5O_storage_chunk_single_filt_t, ptr %47, i32 0, i32 0
  store i32 0, ptr %48, align 8, !tbaa !34
  %49 = load ptr, ptr %4, align 8, !tbaa !3
  %50 = getelementptr inbounds nuw %struct.H5D_chk_idx_info_t, ptr %49, i32 0, i32 3
  %51 = load ptr, ptr %50, align 8, !tbaa !30
  %52 = getelementptr inbounds nuw %struct.H5O_storage_chunk_t, ptr %51, i32 0, i32 3
  %53 = getelementptr inbounds nuw %struct.H5O_storage_chunk_single_filt_t, ptr %52, i32 0, i32 1
  store i32 0, ptr %53, align 4, !tbaa !34
  br label %54

54:                                               ; preds = %43, %28
  br label %60

55:                                               ; preds = %21
  %56 = load ptr, ptr %4, align 8, !tbaa !3
  %57 = getelementptr inbounds nuw %struct.H5D_chk_idx_info_t, ptr %56, i32 0, i32 2
  %58 = load ptr, ptr %57, align 8, !tbaa !27
  %59 = getelementptr inbounds nuw %struct.H5O_layout_chunk_t, ptr %58, i32 0, i32 1
  store i8 0, ptr %59, align 4, !tbaa !28
  br label %60

60:                                               ; preds = %55, %54
  br label %61

61:                                               ; preds = %60, %13
  ret i32 0
}