; Function Attrs: mustprogress nofree norecurse nosync nounwind willreturn memory(readwrite, inaccessiblemem: none) uwtable
define internal noundef i32 @H5D__single_idx_init(ptr noundef readonly captures(none) %0, ptr readnone captures(none) %1, i64 %2) #0 {
  %4 = load i8, ptr @H5D_init_g, align 1, !tbaa !3, !range !7, !noundef !8
  %5 = trunc nuw i8 %4 to i1
  %6 = load i8, ptr @H5_libterm_g, align 1, !range !7
  %7 = trunc nuw i8 %6 to i1
  %8 = xor i1 %7, true
  %9 = select i1 %5, i1 true, i1 %8
  br i1 %9, label %10, label %30, !prof !9

10:                                               ; preds = %3
  %11 = getelementptr inbounds nuw i8, ptr %0, i64 8
  %12 = load ptr, ptr %11, align 8, !tbaa !10
  %13 = getelementptr inbounds nuw i8, ptr %12, i64 56
  %14 = load i64, ptr %13, align 8, !tbaa !17
  %.not = icmp eq i64 %14, 0
  %15 = getelementptr inbounds nuw i8, ptr %0, i64 16
  %16 = load ptr, ptr %15, align 8, !tbaa !23
  %17 = getelementptr inbounds nuw i8, ptr %16, i64 4
  br i1 %.not, label %29, label %18

18:                                               ; preds = %10
  %19 = load i8, ptr %17, align 4, !tbaa !24
  %20 = or i8 %19, 2
  store i8 %20, ptr %17, align 4, !tbaa !24
  %21 = getelementptr inbounds nuw i8, ptr %0, i64 24
  %22 = load ptr, ptr %21, align 8, !tbaa !26
  %23 = getelementptr inbounds nuw i8, ptr %22, i64 8
  %24 = load i64, ptr %23, align 8, !tbaa !27
  %.not6 = icmp eq i64 %24, -1
  br i1 %.not6, label %25, label %30

25:                                               ; preds = %18
  %26 = getelementptr inbounds nuw i8, ptr %22, i64 24
  store i32 0, ptr %26, align 8, !tbaa !30
  %27 = load ptr, ptr %21, align 8, !tbaa !26
  %28 = getelementptr inbounds nuw i8, ptr %27, i64 28
  store i32 0, ptr %28, align 4, !tbaa !30
  br label %30

29:                                               ; preds = %10
  store i8 0, ptr %17, align 4, !tbaa !24
  br label %30

30:                                               ; preds = %29, %25, %18, %3
  ret i32 0
}